; Function Attrs: mustprogress null_pointer_is_valid sspstrong uwtable
define internal void @"_ZN9QtPrivate18QFunctorSlotObjectIZN19WiresharkMainWindow22connectViewMenuActionsEvE3$_4Li0ENS_4ListIJEEEvE4implEiPNS_15QSlotObjectBaseEP7QObjectPPvPb"(i32 noundef %0, ptr noundef %1, ptr readnone captures(none) %2, ptr readnone captures(none) %3, ptr readnone captures(none) %4) #0 align 2 {
  switch i32 %0, label %31 [
    i32 0, label %6
    i32 1, label %9
  ]

6:                                                ; preds = %5
  %7 = icmp eq ptr %1, null
  br i1 %7, label %31, label %8

8:                                                ; preds = %6
  tail call void @_ZdlPvm(ptr noundef nonnull %1, i64 noundef 24) #26
  br label %31

9:                                                ; preds = %5
  %10 = getelementptr inbounds nuw i8, ptr %1, i64 16
  %.val = load ptr, ptr %10, align 8
  %11 = getelementptr inbounds nuw i8, ptr %.val, i64 360
  %12 = load ptr, ptr %11, align 8
  %13 = getelementptr inbounds nuw i8, ptr %12, i64 1504
  %14 = load ptr, ptr %13, align 8
  %15 = tail call noundef zeroext i1 @_ZNK7QAction9isCheckedEv(ptr noundef align 8 dereferenceable_or_null(16) %14)
  %16 = zext i1 %15 to i8
  store i8 %16, ptr @gbl_resolv_flags, align 1
  %17 = load ptr, ptr %11, align 8
  %18 = getelementptr inbounds nuw i8, ptr %17, i64 1512
  %19 = load ptr, ptr %18, align 8
  %20 = tail call noundef zeroext i1 @_ZNK7QAction9isCheckedEv(ptr noundef align 8 dereferenceable_or_null(16) %19)
  %21 = zext i1 %20 to i8
  store i8 %21, ptr getelementptr inbounds nuw (i8, ptr @gbl_resolv_flags, i64 1), align 1
  %22 = load ptr, ptr %11, align 8
  %23 = getelementptr inbounds nuw i8, ptr %22, i64 1520
  %24 = load ptr, ptr %23, align 8
  %25 = tail call noundef zeroext i1 @_ZNK7QAction9isCheckedEv(ptr noundef align 8 dereferenceable_or_null(16) %24)
  %26 = zext i1 %25 to i8
  store i8 %26, ptr getelementptr inbounds nuw (i8, ptr @gbl_resolv_flags, i64 2), align 1
  %27 = getelementptr inbounds nuw i8, ptr %.val, i64 272
  %28 = load ptr, ptr %27, align 8
  %.not.i.i.i.i = icmp eq ptr %28, null
  br i1 %.not.i.i.i.i, label %"_ZN9QtPrivate7FunctorIZN19WiresharkMainWindow22connectViewMenuActionsEvE3$_4Li0EE4callINS_4ListIJEEEvEEvRS2_PvPS8_.exit", label %29

29:                                               ; preds = %9
  tail call void @_ZN10PacketList12resetColumnsEv(ptr noundef nonnull align 8 dereferenceable_or_null(432) %28)
  br label %"_ZN9QtPrivate7FunctorIZN19WiresharkMainWindow22connectViewMenuActionsEvE3$_4Li0EE4callINS_4ListIJEEEvEEvRS2_PvPS8_.exit"

"_ZN9QtPrivate7FunctorIZN19WiresharkMainWindow22connectViewMenuActionsEvE3$_4Li0EE4callINS_4ListIJEEEvEEvRS2_PvPS8_.exit": ; preds = %9, %29
  %30 = load ptr, ptr @mainApp, align 8
  tail call void @_ZN15MainApplication13emitAppSignalENS_9AppSignalE(ptr noundef align 8 dereferenceable_or_null(216) %30, i32 noundef 7)
  br label %31

31:                                               ; preds = %6, %8, %"_ZN9QtPrivate7FunctorIZN19WiresharkMainWindow22connectViewMenuActionsEvE3$_4Li0EE4callINS_4ListIJEEEvEEvRS2_PvPS8_.exit", %5
  ret void
}